target datalayout = "e-m:e-p270:32:32-p271:32:32-p272:64:64-i64:64-i128:128-f80:128-n8:16:32:64-S128"
target triple = "x86_64-pc-linux-gnu"

%struct.strbuf = type { i64, i64, ptr }
%struct.cache_tree = type { i32, %struct.object_id, i32, i32, ptr }
%struct.object_id = type { [32 x i8], i32 }
%struct.index_state = type { ptr, i32, i32, i32, i32, ptr, ptr, ptr, %struct.cache_time, i8, i32, %struct.hashmap, %struct.hashmap, %struct.object_id, ptr, ptr, ptr, ptr, ptr, ptr, ptr }
%struct.cache_time = type { i32, i32 }
%struct.hashmap = type { ptr, ptr, ptr, i32, i32, i32, i32, i8 }

@.str = private unnamed_addr constant [13 x i8] c"cache-tree.c\00", align 1
@__const.prime_cache_tree.tree_path = private unnamed_addr constant %struct.strbuf { i64 0, i64 0, ptr @strbuf_slopbuf }, align 8
@.str.10 = private unnamed_addr constant [11 x i8] c"cache-tree\00", align 1
@.str.11 = private unnamed_addr constant [17 x i8] c"prime_cache_tree\00", align 1

; Function Attrs: nounwind uwtable
define dso_local ptr @cache_tree() #0 {
  %1 = alloca ptr, align 8
  call void @llvm.lifetime.start.p0(i64 8, ptr %1) #10
  %2 = call ptr @xcalloc(i64 noundef 1, i64 noundef 56)
  store ptr %2, ptr %1, align 8, !tbaa !4
  %3 = load ptr, ptr %1, align 8, !tbaa !4
  %4 = getelementptr inbounds nuw %struct.cache_tree, ptr %3, i32 0, i32 0
  store i32 -1, ptr %4, align 8, !tbaa !9
  %5 = load ptr, ptr %1, align 8, !tbaa !4
  call void @llvm.lifetime.end.p0(i64 8, ptr %1) #10
  ret ptr %5
}

; Function Attrs: nounwind uwtable
define dso_local void @prime_cache_tree(ptr noundef %0, ptr noundef %1, ptr noundef %2) #0 {
  %4 = alloca ptr, align 8
  %5 = alloca ptr, align 8
  %6 = alloca ptr, align 8
  %7 = alloca %struct.strbuf, align 8
  store ptr %0, ptr %4, align 8, !tbaa !48
  store ptr %1, ptr %5, align 8, !tbaa !30
  store ptr %2, ptr %6, align 8, !tbaa !103
  call void @llvm.lifetime.start.p0(i64 24, ptr %7) #10
  call void @llvm.memcpy.p0.p0.i64(ptr align 8 %7, ptr align 8 @__const.prime_cache_tree.tree_path, i64 24, i1 false)
  %8 = load ptr, ptr %4, align 8, !tbaa !48
  call void (ptr, i32, ptr, ptr, ptr, ...) @trace2_region_enter_fl(ptr noundef @.str, i32 noundef 828, ptr noundef @.str.10, ptr noundef @.str.11, ptr noundef %8)
  %9 = load ptr, ptr %5, align 8, !tbaa !30
  %10 = getelementptr inbounds nuw %struct.index_state, ptr %9, i32 0, i32 6
  call void @cache_tree_free(ptr noundef %10)
  %11 = call ptr @cache_tree()
  %12 = load ptr, ptr %5, align 8, !tbaa !30
  %13 = getelementptr inbounds nuw %struct.index_state, ptr %12, i32 0, i32 6
  store ptr %11, ptr %13, align 8, !tbaa !32
  %14 = load ptr, ptr %4, align 8, !tbaa !48
  %15 = load ptr, ptr %5, align 8, !tbaa !30
  %16 = getelementptr inbounds nuw %struct.index_state, ptr %15, i32 0, i32 6
  %17 = load ptr, ptr %16, align 8, !tbaa !32
  %18 = load ptr, ptr %6, align 8, !tbaa !103
  call void @prime_cache_tree_rec(ptr noundef %14, ptr noundef %17, ptr noundef %18, ptr noundef %7)
  call void @strbuf_release(ptr noundef %7)
  %19 = load ptr, ptr %5, align 8, !tbaa !30
  %20 = getelementptr inbounds nuw %struct.index_state, ptr %19, i32 0, i32 4
  %21 = load i32, ptr %20, align 4, !tbaa !46
  %22 = or i32 %21, 32
  store i32 %22, ptr %20, align 4, !tbaa !46
  %23 = load ptr, ptr %4, align 8, !tbaa !48
  call void (ptr, i32, ptr, ptr, ptr, ...) @trace2_region_leave_fl(ptr noundef @.str, i32 noundef 835, ptr noundef @.str.10, ptr noundef @.str.11, ptr noundef %23)
  call void @llvm.lifetime.end.p0(i64 24, ptr %7) #10
  ret void
}