; Function Attrs: nounwind uwtable
define dso_local void @prime_cache_tree(ptr noundef %0, ptr noundef captures(none) %1, ptr noundef %2) local_unnamed_addr #0 {
  %4 = alloca %struct.strbuf, align 8
  call void @llvm.lifetime.start.p0(i64 24, ptr nonnull %4) #18
  call void @llvm.memcpy.p0.p0.i64(ptr noundef nonnull align 8 dereferenceable(24) %4, ptr noundef nonnull align 8 dereferenceable(24) @__const.verify_one.tree_buf, i64 24, i1 false)
  tail call void (ptr, i32, ptr, ptr, ptr, ...) @trace2_region_enter_fl(ptr noundef nonnull @.str, i32 noundef 828, ptr noundef nonnull @.str.10, ptr noundef nonnull @.str.11, ptr noundef %0) #18
  %5 = getelementptr inbounds nuw i8, ptr %1, i64 32
  tail call void @cache_tree_free(ptr noundef nonnull %5)
  %6 = tail call noundef ptr @xcalloc(i64 noundef 1, i64 noundef 56) #18
  store i32 -1, ptr %6, align 8, !tbaa !4
  store ptr %6, ptr %5, align 8, !tbaa !23
  call fastcc void @prime_cache_tree_rec(ptr noundef %0, ptr noundef nonnull %6, ptr noundef %2, ptr noundef %4)
  call void @strbuf_release(ptr noundef nonnull %4) #18
  %7 = getelementptr inbounds nuw i8, ptr %1, i64 20
  %8 = load i32, ptr %7, align 4, !tbaa !39
  %9 = or i32 %8, 32
  store i32 %9, ptr %7, align 4, !tbaa !39
  call void (ptr, i32, ptr, ptr, ptr, ...) @trace2_region_leave_fl(ptr noundef nonnull @.str, i32 noundef 835, ptr noundef nonnull @.str.10, ptr noundef nonnull @.str.11, ptr noundef %0) #18
  call void @llvm.lifetime.end.p0(i64 24, ptr nonnull %4) #18
  ret void
}